
EmbeddedGPS.elf:     file format elf32-littlearm

Sections:
Idx Name          Size      VMA       LMA       File off  Algn
  0 .text         00000944  00080000  00080000  00010000  2**2
                  CONTENTS, ALLOC, LOAD, READONLY, CODE
  1 .relocate     00000430  20000000  00080944  00020000  2**3
                  CONTENTS, ALLOC, LOAD, DATA
  2 .bss          00000100  20000430  00080d74  00020430  2**2
                  ALLOC
  3 .stack        00000400  20000530  00080e74  00020430  2**0
                  ALLOC
  4 .heap         00000200  20000930  00081274  00020430  2**0
                  ALLOC
  5 .ARM.attributes 00000029  00000000  00000000  00020430  2**0
                  CONTENTS, READONLY
  6 .comment      00000059  00000000  00000000  00020459  2**0
                  CONTENTS, READONLY
  7 .debug_info   00002568  00000000  00000000  000204b2  2**0
                  CONTENTS, READONLY, DEBUGGING
  8 .debug_abbrev 000007b0  00000000  00000000  00022a1a  2**0
                  CONTENTS, READONLY, DEBUGGING
  9 .debug_loc    000002c0  00000000  00000000  000231ca  2**0
                  CONTENTS, READONLY, DEBUGGING
 10 .debug_aranges 00000148  00000000  00000000  0002348a  2**0
                  CONTENTS, READONLY, DEBUGGING
 11 .debug_ranges 00000100  00000000  00000000  000235d2  2**0
                  CONTENTS, READONLY, DEBUGGING
 12 .debug_macro  0001177c  00000000  00000000  000236d2  2**0
                  CONTENTS, READONLY, DEBUGGING
 13 .debug_line   00002d8e  00000000  00000000  00034e4e  2**0
                  CONTENTS, READONLY, DEBUGGING
 14 .debug_str    00052bc2  00000000  00000000  00037bdc  2**0
                  CONTENTS, READONLY, DEBUGGING
 15 .debug_frame  00000388  00000000  00000000  0008a7a0  2**2
                  CONTENTS, READONLY, DEBUGGING

Disassembly of section .text:

00080000 <_sfixed>:
   80000:	20000930 	.word	0x20000930
   80004:	00080155 	.word	0x00080155
   80008:	00080151 	.word	0x00080151
   8000c:	00080151 	.word	0x00080151
   80010:	00080151 	.word	0x00080151
   80014:	00080151 	.word	0x00080151
   80018:	00080151 	.word	0x00080151
	...
   8002c:	00080151 	.word	0x00080151
   80030:	00080151 	.word	0x00080151
   80034:	00000000 	.word	0x00000000
   80038:	00080151 	.word	0x00080151
   8003c:	00080151 	.word	0x00080151
   80040:	00080151 	.word	0x00080151
   80044:	00080151 	.word	0x00080151
   80048:	00080151 	.word	0x00080151
   8004c:	00080151 	.word	0x00080151
   80050:	00080151 	.word	0x00080151
   80054:	00080151 	.word	0x00080151
   80058:	00080151 	.word	0x00080151
   8005c:	00080151 	.word	0x00080151
   80060:	000803e1 	.word	0x000803e1
   80064:	00080151 	.word	0x00080151
   80068:	00000000 	.word	0x00000000
   8006c:	00080151 	.word	0x00080151
   80070:	00080151 	.word	0x00080151
   80074:	00080151 	.word	0x00080151
   80078:	00080151 	.word	0x00080151
	...
   80084:	00080151 	.word	0x00080151
   80088:	00080151 	.word	0x00080151
   8008c:	00080151 	.word	0x00080151
   80090:	00080151 	.word	0x00080151
   80094:	00080151 	.word	0x00080151
   80098:	00080151 	.word	0x00080151
   8009c:	00080151 	.word	0x00080151
   800a0:	00080151 	.word	0x00080151
   800a4:	00000000 	.word	0x00000000
   800a8:	00080151 	.word	0x00080151
   800ac:	00080151 	.word	0x00080151
   800b0:	00080151 	.word	0x00080151
   800b4:	00080151 	.word	0x00080151
   800b8:	00080151 	.word	0x00080151
   800bc:	00080151 	.word	0x00080151
   800c0:	00080151 	.word	0x00080151
   800c4:	00080151 	.word	0x00080151
   800c8:	00080151 	.word	0x00080151
   800cc:	00080151 	.word	0x00080151
   800d0:	00080151 	.word	0x00080151
   800d4:	00080151 	.word	0x00080151
   800d8:	00080151 	.word	0x00080151
   800dc:	00080151 	.word	0x00080151
   800e0:	00080151 	.word	0x00080151
   800e4:	00080151 	.word	0x00080151
   800e8:	00080151 	.word	0x00080151
   800ec:	00080151 	.word	0x00080151
   800f0:	00080151 	.word	0x00080151

000800f4 <__do_global_dtors_aux>:
   800f4:	b510      	push	{r4, lr}
   800f6:	4c05      	ldr	r4, [pc, #20]	; (8010c <__do_global_dtors_aux+0x18>)
   800f8:	7823      	ldrb	r3, [r4, #0]
   800fa:	b933      	cbnz	r3, 8010a <__do_global_dtors_aux+0x16>
   800fc:	4b04      	ldr	r3, [pc, #16]	; (80110 <__do_global_dtors_aux+0x1c>)
   800fe:	b113      	cbz	r3, 80106 <__do_global_dtors_aux+0x12>
   80100:	4804      	ldr	r0, [pc, #16]	; (80114 <__do_global_dtors_aux+0x20>)
   80102:	f3af 8000 	nop.w
   80106:	2301      	movs	r3, #1
   80108:	7023      	strb	r3, [r4, #0]
   8010a:	bd10      	pop	{r4, pc}
   8010c:	20000430 	.word	0x20000430
   80110:	00000000 	.word	0x00000000
   80114:	00080944 	.word	0x00080944

00080118 <frame_dummy>:
   80118:	4b08      	ldr	r3, [pc, #32]	; (8013c <frame_dummy+0x24>)
   8011a:	b510      	push	{r4, lr}
   8011c:	b11b      	cbz	r3, 80126 <frame_dummy+0xe>
   8011e:	4908      	ldr	r1, [pc, #32]	; (80140 <frame_dummy+0x28>)
   80120:	4808      	ldr	r0, [pc, #32]	; (80144 <frame_dummy+0x2c>)
   80122:	f3af 8000 	nop.w
   80126:	4808      	ldr	r0, [pc, #32]	; (80148 <frame_dummy+0x30>)
   80128:	6803      	ldr	r3, [r0, #0]
   8012a:	b903      	cbnz	r3, 8012e <frame_dummy+0x16>
   8012c:	bd10      	pop	{r4, pc}
   8012e:	4b07      	ldr	r3, [pc, #28]	; (8014c <frame_dummy+0x34>)
   80130:	2b00      	cmp	r3, #0
   80132:	d0fb      	beq.n	8012c <frame_dummy+0x14>
   80134:	e8bd 4010 	ldmia.w	sp!, {r4, lr}
   80138:	4718      	bx	r3
   8013a:	bf00      	nop
   8013c:	00000000 	.word	0x00000000
   80140:	20000434 	.word	0x20000434
   80144:	00080944 	.word	0x00080944
   80148:	00080944 	.word	0x00080944
   8014c:	00000000 	.word	0x00000000

00080150 <Dummy_Handler>:

/**
 * \brief Default interrupt handler for unused IRQs.
 */
void Dummy_Handler(void)
{
   80150:	e7fe      	b.n	80150 <Dummy_Handler>
   80152:	bf00      	nop

00080154 <Reset_Handler>:
/**
 * \brief This is the code that gets called on processor reset.
 * To initialize the device, and call the main() routine.
 */
void Reset_Handler(void)
{
   80154:	b508      	push	{r3, lr}

        /* Initialize the relocate segment */
        pSrc = &_etext;
        pDest = &_srelocate;

        if (pSrc != pDest) {
   80156:	4b1a      	ldr	r3, [pc, #104]	; (801c0 <Reset_Handler+0x6c>)
   80158:	4a1a      	ldr	r2, [pc, #104]	; (801c4 <Reset_Handler+0x70>)
   8015a:	429a      	cmp	r2, r3
   8015c:	d003      	beq.n	80166 <Reset_Handler+0x12>
                for (; pDest < &_erelocate;) {
   8015e:	4b1a      	ldr	r3, [pc, #104]	; (801c8 <Reset_Handler+0x74>)
   80160:	4a17      	ldr	r2, [pc, #92]	; (801c0 <Reset_Handler+0x6c>)
   80162:	429a      	cmp	r2, r3
   80164:	d304      	bcc.n	80170 <Reset_Handler+0x1c>
                        *pDest++ = *pSrc++;
                }
        }

        /* Clear the zero segment */
        for (pDest = &_szero; pDest < &_ezero;) {
   80166:	4b19      	ldr	r3, [pc, #100]	; (801cc <Reset_Handler+0x78>)
   80168:	4a19      	ldr	r2, [pc, #100]	; (801d0 <Reset_Handler+0x7c>)
   8016a:	429a      	cmp	r2, r3
   8016c:	d30f      	bcc.n	8018e <Reset_Handler+0x3a>
   8016e:	e01a      	b.n	801a6 <Reset_Handler+0x52>
   80170:	4913      	ldr	r1, [pc, #76]	; (801c0 <Reset_Handler+0x6c>)
   80172:	4b18      	ldr	r3, [pc, #96]	; (801d4 <Reset_Handler+0x80>)
   80174:	1a5b      	subs	r3, r3, r1
   80176:	f023 0303 	bic.w	r3, r3, #3
   8017a:	3304      	adds	r3, #4
   8017c:	4a11      	ldr	r2, [pc, #68]	; (801c4 <Reset_Handler+0x70>)
   8017e:	4413      	add	r3, r2
        pSrc = &_etext;
        pDest = &_srelocate;

        if (pSrc != pDest) {
                for (; pDest < &_erelocate;) {
                        *pDest++ = *pSrc++;
   80180:	f852 0b04 	ldr.w	r0, [r2], #4
   80184:	f841 0b04 	str.w	r0, [r1], #4
        /* Initialize the relocate segment */
        pSrc = &_etext;
        pDest = &_srelocate;

        if (pSrc != pDest) {
                for (; pDest < &_erelocate;) {
   80188:	429a      	cmp	r2, r3
   8018a:	d1f9      	bne.n	80180 <Reset_Handler+0x2c>
   8018c:	e7eb      	b.n	80166 <Reset_Handler+0x12>
   8018e:	4b12      	ldr	r3, [pc, #72]	; (801d8 <Reset_Handler+0x84>)
   80190:	4a12      	ldr	r2, [pc, #72]	; (801dc <Reset_Handler+0x88>)
   80192:	1ad2      	subs	r2, r2, r3
   80194:	f022 0203 	bic.w	r2, r2, #3
   80198:	441a      	add	r2, r3
                        *pDest++ = *pSrc++;
                }
        }

        /* Clear the zero segment */
        for (pDest = &_szero; pDest < &_ezero;) {
   8019a:	3b04      	subs	r3, #4
                *pDest++ = 0;
   8019c:	2100      	movs	r1, #0
   8019e:	f843 1b04 	str.w	r1, [r3], #4
                        *pDest++ = *pSrc++;
                }
        }

        /* Clear the zero segment */
        for (pDest = &_szero; pDest < &_ezero;) {
   801a2:	4293      	cmp	r3, r2
   801a4:	d1fb      	bne.n	8019e <Reset_Handler+0x4a>
                *pDest++ = 0;
        }

        /* Set the vector table base address */
        pSrc = (uint32_t *) & _sfixed;
        SCB->VTOR = ((uint32_t) pSrc & SCB_VTOR_TBLOFF_Msk);
   801a6:	4b0e      	ldr	r3, [pc, #56]	; (801e0 <Reset_Handler+0x8c>)
   801a8:	f023 4360 	bic.w	r3, r3, #3758096384	; 0xe0000000
   801ac:	f023 037f 	bic.w	r3, r3, #127	; 0x7f
   801b0:	4a0c      	ldr	r2, [pc, #48]	; (801e4 <Reset_Handler+0x90>)
   801b2:	6093      	str	r3, [r2, #8]

        /* Initialize the C library */
        __libc_init_array();
   801b4:	4b0c      	ldr	r3, [pc, #48]	; (801e8 <Reset_Handler+0x94>)
   801b6:	4798      	blx	r3

        /* Branch to main function */
        main();
   801b8:	4b0c      	ldr	r3, [pc, #48]	; (801ec <Reset_Handler+0x98>)
   801ba:	4798      	blx	r3
   801bc:	e7fe      	b.n	801bc <Reset_Handler+0x68>
   801be:	bf00      	nop
   801c0:	20000000 	.word	0x20000000
   801c4:	00080944 	.word	0x00080944
   801c8:	20000430 	.word	0x20000430
   801cc:	20000530 	.word	0x20000530
   801d0:	20000430 	.word	0x20000430
   801d4:	2000042f 	.word	0x2000042f
   801d8:	20000434 	.word	0x20000434
   801dc:	20000533 	.word	0x20000533
   801e0:	00080000 	.word	0x00080000
   801e4:	e000ed00 	.word	0xe000ed00
   801e8:	00080555 	.word	0x00080555
   801ec:	000802c5 	.word	0x000802c5

000801f0 <SystemInit>:
 * Initialize the System and update the SystemFrequency variable.
 */
void SystemInit( void )
{
  /* Set FWS according to SYS_BOARD_MCKR configuration */
  EFC0->EEFC_FMR = EEFC_FMR_FWS(4);
   801f0:	f44f 6380 	mov.w	r3, #1024	; 0x400
   801f4:	4a20      	ldr	r2, [pc, #128]	; (80278 <SystemInit+0x88>)
   801f6:	6013      	str	r3, [r2, #0]
  EFC1->EEFC_FMR = EEFC_FMR_FWS(4);
   801f8:	f502 7200 	add.w	r2, r2, #512	; 0x200
   801fc:	6013      	str	r3, [r2, #0]

  /* Initialize main oscillator */
  if ( !(PMC->CKGR_MOR & CKGR_MOR_MOSCSEL) )
   801fe:	4b1f      	ldr	r3, [pc, #124]	; (8027c <SystemInit+0x8c>)
   80200:	6a1b      	ldr	r3, [r3, #32]
   80202:	f013 7f80 	tst.w	r3, #16777216	; 0x1000000
   80206:	d107      	bne.n	80218 <SystemInit+0x28>
  {
    PMC->CKGR_MOR = CKGR_MOR_KEY_PASSWD | SYS_BOARD_OSCOUNT | CKGR_MOR_MOSCRCEN | CKGR_MOR_MOSCXTEN;
   80208:	4a1d      	ldr	r2, [pc, #116]	; (80280 <SystemInit+0x90>)
   8020a:	4b1c      	ldr	r3, [pc, #112]	; (8027c <SystemInit+0x8c>)
   8020c:	621a      	str	r2, [r3, #32]
    while ( !(PMC->PMC_SR & PMC_SR_MOSCXTS) )
   8020e:	461a      	mov	r2, r3
   80210:	6e93      	ldr	r3, [r2, #104]	; 0x68
   80212:	f013 0f01 	tst.w	r3, #1
   80216:	d0fb      	beq.n	80210 <SystemInit+0x20>
    {
    }
  }

  /* Switch to 3-20MHz Xtal oscillator */
  PMC->CKGR_MOR = CKGR_MOR_KEY_PASSWD | SYS_BOARD_OSCOUNT | CKGR_MOR_MOSCRCEN | CKGR_MOR_MOSCXTEN | CKGR_MOR_MOSCSEL;
   80218:	4a1a      	ldr	r2, [pc, #104]	; (80284 <SystemInit+0x94>)
   8021a:	4b18      	ldr	r3, [pc, #96]	; (8027c <SystemInit+0x8c>)
   8021c:	621a      	str	r2, [r3, #32]

  while ( !(PMC->PMC_SR & PMC_SR_MOSCSELS) )
   8021e:	461a      	mov	r2, r3
   80220:	6e93      	ldr	r3, [r2, #104]	; 0x68
   80222:	f413 3f80 	tst.w	r3, #65536	; 0x10000
   80226:	d0fb      	beq.n	80220 <SystemInit+0x30>
  {
  }
 	PMC->PMC_MCKR = (PMC->PMC_MCKR & ~(uint32_t)PMC_MCKR_CSS_Msk) | PMC_MCKR_CSS_MAIN_CLK;
   80228:	4a14      	ldr	r2, [pc, #80]	; (8027c <SystemInit+0x8c>)
   8022a:	6b13      	ldr	r3, [r2, #48]	; 0x30
   8022c:	f023 0303 	bic.w	r3, r3, #3
   80230:	f043 0301 	orr.w	r3, r3, #1
   80234:	6313      	str	r3, [r2, #48]	; 0x30
  while (!(PMC->PMC_SR & PMC_SR_MCKRDY))
   80236:	6e93      	ldr	r3, [r2, #104]	; 0x68
   80238:	f013 0f08 	tst.w	r3, #8
   8023c:	d0fb      	beq.n	80236 <SystemInit+0x46>
  {
  }

  /* Initialize PLLA */
  PMC->CKGR_PLLAR = SYS_BOARD_PLLAR;
   8023e:	4a12      	ldr	r2, [pc, #72]	; (80288 <SystemInit+0x98>)
   80240:	4b0e      	ldr	r3, [pc, #56]	; (8027c <SystemInit+0x8c>)
   80242:	629a      	str	r2, [r3, #40]	; 0x28
  while ( !(PMC->PMC_SR & PMC_SR_LOCKA) )
   80244:	461a      	mov	r2, r3
   80246:	6e93      	ldr	r3, [r2, #104]	; 0x68
   80248:	f013 0f02 	tst.w	r3, #2
   8024c:	d0fb      	beq.n	80246 <SystemInit+0x56>
  {
  }

  /* Switch to main clock */
  PMC->PMC_MCKR = (SYS_BOARD_MCKR & ~PMC_MCKR_CSS_Msk) | PMC_MCKR_CSS_MAIN_CLK;
   8024e:	2211      	movs	r2, #17
   80250:	4b0a      	ldr	r3, [pc, #40]	; (8027c <SystemInit+0x8c>)
   80252:	631a      	str	r2, [r3, #48]	; 0x30
  while ( !(PMC->PMC_SR & PMC_SR_MCKRDY) )
   80254:	461a      	mov	r2, r3
   80256:	6e93      	ldr	r3, [r2, #104]	; 0x68
   80258:	f013 0f08 	tst.w	r3, #8
   8025c:	d0fb      	beq.n	80256 <SystemInit+0x66>
  {
  }

  /* Switch to PLLA */
  PMC->PMC_MCKR = SYS_BOARD_MCKR;
   8025e:	2212      	movs	r2, #18
   80260:	4b06      	ldr	r3, [pc, #24]	; (8027c <SystemInit+0x8c>)
   80262:	631a      	str	r2, [r3, #48]	; 0x30
  while ( !(PMC->PMC_SR & PMC_SR_MCKRDY) )
   80264:	461a      	mov	r2, r3
   80266:	6e93      	ldr	r3, [r2, #104]	; 0x68
   80268:	f013 0f08 	tst.w	r3, #8
   8026c:	d0fb      	beq.n	80266 <SystemInit+0x76>
  {
  }

  SystemCoreClock = CHIP_FREQ_CPU_MAX;
   8026e:	4a07      	ldr	r2, [pc, #28]	; (8028c <SystemInit+0x9c>)
   80270:	4b07      	ldr	r3, [pc, #28]	; (80290 <SystemInit+0xa0>)
   80272:	601a      	str	r2, [r3, #0]
   80274:	4770      	bx	lr
   80276:	bf00      	nop
   80278:	400e0a00 	.word	0x400e0a00
   8027c:	400e0600 	.word	0x400e0600
   80280:	00370809 	.word	0x00370809
   80284:	01370809 	.word	0x01370809
   80288:	200d3f01 	.word	0x200d3f01
   8028c:	0501bd00 	.word	0x0501bd00
   80290:	20000000 	.word	0x20000000

00080294 <init>:
#include "USART.h"
#include "nmeaScanner.h"


void init(void)
{
   80294:	b508      	push	{r3, lr}
	SystemInit();
   80296:	4b06      	ldr	r3, [pc, #24]	; (802b0 <init+0x1c>)
   80298:	4798      	blx	r3
	WDT->WDT_MR = WDT_MR_WDDIS;//Disable watchdog timer
   8029a:	f44f 4200 	mov.w	r2, #32768	; 0x8000
   8029e:	4b05      	ldr	r3, [pc, #20]	; (802b4 <init+0x20>)
   802a0:	605a      	str	r2, [r3, #4]
	inic_UART();
   802a2:	4b05      	ldr	r3, [pc, #20]	; (802b8 <init+0x24>)
   802a4:	4798      	blx	r3
	init_usart0();
   802a6:	4b05      	ldr	r3, [pc, #20]	; (802bc <init+0x28>)
   802a8:	4798      	blx	r3
	inic_Interrupt_RX();
   802aa:	4b05      	ldr	r3, [pc, #20]	; (802c0 <init+0x2c>)
   802ac:	4798      	blx	r3
   802ae:	bd08      	pop	{r3, pc}
   802b0:	000801f1 	.word	0x000801f1
   802b4:	400e1a50 	.word	0x400e1a50
   802b8:	0008044d 	.word	0x0008044d
   802bc:	000804f5 	.word	0x000804f5
   802c0:	0008048d 	.word	0x0008048d

000802c4 <main>:
}

int main(void)
{
   802c4:	b580      	push	{r7, lr}
	init();
   802c6:	4b0a      	ldr	r3, [pc, #40]	; (802f0 <main+0x2c>)
   802c8:	4798      	blx	r3
	escreve_UARTmsg("AQUI!\n");
   802ca:	480a      	ldr	r0, [pc, #40]	; (802f4 <main+0x30>)
   802cc:	4b0a      	ldr	r3, [pc, #40]	; (802f8 <main+0x34>)
   802ce:	4798      	blx	r3
	while (1)
	{
		escreve_UARTmsg(scanNmea("$GPRMC"));
   802d0:	4f0a      	ldr	r7, [pc, #40]	; (802fc <main+0x38>)
   802d2:	4e09      	ldr	r6, [pc, #36]	; (802f8 <main+0x34>)
   802d4:	4d0a      	ldr	r5, [pc, #40]	; (80300 <main+0x3c>)
		//escreve_UARTmsg(scanNmea("$GPGLL"));
		if(returnStatusBufferRx())
   802d6:	4c0b      	ldr	r4, [pc, #44]	; (80304 <main+0x40>)
{
	init();
	escreve_UARTmsg("AQUI!\n");
	while (1)
	{
		escreve_UARTmsg(scanNmea("$GPRMC"));
   802d8:	4628      	mov	r0, r5
   802da:	47b8      	blx	r7
   802dc:	47b0      	blx	r6
		//escreve_UARTmsg(scanNmea("$GPGLL"));
		if(returnStatusBufferRx())
   802de:	47a0      	blx	r4
   802e0:	2800      	cmp	r0, #0
   802e2:	d0f9      	beq.n	802d8 <main+0x14>
		{
			//escreve_UARTmsg(returnBufferRX());
			escreve_bufferRX();
   802e4:	4b08      	ldr	r3, [pc, #32]	; (80308 <main+0x44>)
   802e6:	4798      	blx	r3
			limpaBufferRX();
   802e8:	4b08      	ldr	r3, [pc, #32]	; (8030c <main+0x48>)
   802ea:	4798      	blx	r3
   802ec:	e7f4      	b.n	802d8 <main+0x14>
   802ee:	bf00      	nop
   802f0:	00080295 	.word	0x00080295
   802f4:	00080908 	.word	0x00080908
   802f8:	000804b9 	.word	0x000804b9
   802fc:	00080359 	.word	0x00080359
   80300:	00080910 	.word	0x00080910
   80304:	0008043d 	.word	0x0008043d
   80308:	000804d5 	.word	0x000804d5
   8030c:	00080419 	.word	0x00080419

00080310 <getCurrentChar>:
#include "nmeaScanner.h"
char getCurrentChar(void)
{
   80310:	b508      	push	{r3, lr}
	currentChar = le_USARTcarac();
   80312:	4b03      	ldr	r3, [pc, #12]	; (80320 <getCurrentChar+0x10>)
   80314:	4798      	blx	r3
   80316:	b2c0      	uxtb	r0, r0
   80318:	4b02      	ldr	r3, [pc, #8]	; (80324 <getCurrentChar+0x14>)
   8031a:	7018      	strb	r0, [r3, #0]
	return currentChar;
}
   8031c:	bd08      	pop	{r3, pc}
   8031e:	bf00      	nop
   80320:	0008053d 	.word	0x0008053d
   80324:	200004bc 	.word	0x200004bc

00080328 <appendSpelling>:
void appendSpelling(char a)
{
	currentSpelling[cSpelling++] = a;
   80328:	4a04      	ldr	r2, [pc, #16]	; (8033c <appendSpelling+0x14>)
   8032a:	6811      	ldr	r1, [r2, #0]
   8032c:	1c4b      	adds	r3, r1, #1
   8032e:	6013      	str	r3, [r2, #0]
   80330:	4a03      	ldr	r2, [pc, #12]	; (80340 <appendSpelling+0x18>)
   80332:	5450      	strb	r0, [r2, r1]
	currentSpelling[cSpelling] = '\0';
   80334:	2100      	movs	r1, #0
   80336:	54d1      	strb	r1, [r2, r3]
   80338:	4770      	bx	lr
   8033a:	bf00      	nop
   8033c:	200004b8 	.word	0x200004b8
   80340:	20000454 	.word	0x20000454

00080344 <flushSpelling>:
}
void flushSpelling(void)
{
	cSpelling = 0;
   80344:	2300      	movs	r3, #0
   80346:	4a02      	ldr	r2, [pc, #8]	; (80350 <flushSpelling+0xc>)
   80348:	6013      	str	r3, [r2, #0]
	currentSpelling[cSpelling]='\0';
   8034a:	4a02      	ldr	r2, [pc, #8]	; (80354 <flushSpelling+0x10>)
   8034c:	7013      	strb	r3, [r2, #0]
   8034e:	4770      	bx	lr
   80350:	200004b8 	.word	0x200004b8
   80354:	20000454 	.word	0x20000454

00080358 <scanNmea>:
}
char* scanNmea(char* mensageCode)//$GPRMC, $GPGGA, $GPGSA, $GPGLL
{
   80358:	e92d 43f8 	stmdb	sp!, {r3, r4, r5, r6, r7, r8, r9, lr}
   8035c:	4681      	mov	r9, r0
	flushSpelling();
   8035e:	4b17      	ldr	r3, [pc, #92]	; (803bc <scanNmea+0x64>)
   80360:	4798      	blx	r3
	while(1)
	{
		getCurrentChar();
   80362:	4e17      	ldr	r6, [pc, #92]	; (803c0 <scanNmea+0x68>)
		if(currentChar=='$')
   80364:	4d17      	ldr	r5, [pc, #92]	; (803c4 <scanNmea+0x6c>)
		{
			int x;
			appendSpelling(currentChar);
   80366:	4f18      	ldr	r7, [pc, #96]	; (803c8 <scanNmea+0x70>)
			for(x=0;x<5;x++)
			appendSpelling(le_USARTcarac());
   80368:	f8df 8070 	ldr.w	r8, [pc, #112]	; 803dc <scanNmea+0x84>
char* scanNmea(char* mensageCode)//$GPRMC, $GPGGA, $GPGSA, $GPGLL
{
	flushSpelling();
	while(1)
	{
		getCurrentChar();
   8036c:	47b0      	blx	r6
		if(currentChar=='$')
   8036e:	782b      	ldrb	r3, [r5, #0]
   80370:	2b24      	cmp	r3, #36	; 0x24
   80372:	d1fb      	bne.n	8036c <scanNmea+0x14>
		{
			int x;
			appendSpelling(currentChar);
   80374:	2024      	movs	r0, #36	; 0x24
   80376:	47b8      	blx	r7
   80378:	2405      	movs	r4, #5
			for(x=0;x<5;x++)
			appendSpelling(le_USARTcarac());
   8037a:	47c0      	blx	r8
   8037c:	b2c0      	uxtb	r0, r0
   8037e:	47b8      	blx	r7
		getCurrentChar();
		if(currentChar=='$')
		{
			int x;
			appendSpelling(currentChar);
			for(x=0;x<5;x++)
   80380:	3c01      	subs	r4, #1
   80382:	d1fa      	bne.n	8037a <scanNmea+0x22>
			appendSpelling(le_USARTcarac());
			
			if(!strcmp(currentSpelling,mensageCode))
   80384:	4649      	mov	r1, r9
   80386:	4811      	ldr	r0, [pc, #68]	; (803cc <scanNmea+0x74>)
   80388:	4b11      	ldr	r3, [pc, #68]	; (803d0 <scanNmea+0x78>)
   8038a:	4798      	blx	r3
   8038c:	b948      	cbnz	r0, 803a2 <scanNmea+0x4a>
			{
				do
				{
					getCurrentChar();
   8038e:	4e0c      	ldr	r6, [pc, #48]	; (803c0 <scanNmea+0x68>)
					appendSpelling(currentChar);
   80390:	4c0c      	ldr	r4, [pc, #48]	; (803c4 <scanNmea+0x6c>)
   80392:	4d0d      	ldr	r5, [pc, #52]	; (803c8 <scanNmea+0x70>)
			
			if(!strcmp(currentSpelling,mensageCode))
			{
				do
				{
					getCurrentChar();
   80394:	47b0      	blx	r6
					appendSpelling(currentChar);
   80396:	7820      	ldrb	r0, [r4, #0]
   80398:	47a8      	blx	r5
				}while(currentChar!='\n');
   8039a:	7823      	ldrb	r3, [r4, #0]
   8039c:	2b0a      	cmp	r3, #10
   8039e:	d1f9      	bne.n	80394 <scanNmea+0x3c>
   803a0:	e002      	b.n	803a8 <scanNmea+0x50>
				return mensage;

			}
			else
			{
				flushSpelling();
   803a2:	4b06      	ldr	r3, [pc, #24]	; (803bc <scanNmea+0x64>)
   803a4:	4798      	blx	r3
   803a6:	e7e1      	b.n	8036c <scanNmea+0x14>
				do
				{
					getCurrentChar();
					appendSpelling(currentChar);
				}while(currentChar!='\n');
				strcpy(mensage,currentSpelling);
   803a8:	4c0a      	ldr	r4, [pc, #40]	; (803d4 <scanNmea+0x7c>)
   803aa:	4908      	ldr	r1, [pc, #32]	; (803cc <scanNmea+0x74>)
   803ac:	4620      	mov	r0, r4
   803ae:	4b0a      	ldr	r3, [pc, #40]	; (803d8 <scanNmea+0x80>)
   803b0:	4798      	blx	r3
				flushSpelling();
   803b2:	4b02      	ldr	r3, [pc, #8]	; (803bc <scanNmea+0x64>)
   803b4:	4798      	blx	r3
			}
		}
		
	}
	return NULL;
}
   803b6:	4620      	mov	r0, r4
   803b8:	e8bd 83f8 	ldmia.w	sp!, {r3, r4, r5, r6, r7, r8, r9, pc}
   803bc:	00080345 	.word	0x00080345
   803c0:	00080311 	.word	0x00080311
   803c4:	200004bc 	.word	0x200004bc
   803c8:	00080329 	.word	0x00080329
   803cc:	20000454 	.word	0x20000454
   803d0:	000805a5 	.word	0x000805a5
   803d4:	200004c0 	.word	0x200004c0
   803d8:	00080761 	.word	0x00080761
   803dc:	0008053d 	.word	0x0008053d

000803e0 <UART_Handler>:
void UART_Handler()
{
	static uint32_t i =0;
	
	
	if(flag_bufferCheio == 0)
   803e0:	4b0a      	ldr	r3, [pc, #40]	; (8040c <UART_Handler+0x2c>)
   803e2:	681b      	ldr	r3, [r3, #0]
   803e4:	b97b      	cbnz	r3, 80406 <UART_Handler+0x26>
	{
		bufferRX[i] = UART->UART_RHR;		// leitura do dado recebido
   803e6:	4a09      	ldr	r2, [pc, #36]	; (8040c <UART_Handler+0x2c>)
   803e8:	6853      	ldr	r3, [r2, #4]
   803ea:	4909      	ldr	r1, [pc, #36]	; (80410 <UART_Handler+0x30>)
   803ec:	6988      	ldr	r0, [r1, #24]
   803ee:	4909      	ldr	r1, [pc, #36]	; (80414 <UART_Handler+0x34>)
   803f0:	54c8      	strb	r0, [r1, r3]
		i++;
   803f2:	3301      	adds	r3, #1
   803f4:	6053      	str	r3, [r2, #4]
		
		if(i==tam_bufferRX)
   803f6:	2b0a      	cmp	r3, #10
   803f8:	d107      	bne.n	8040a <UART_Handler+0x2a>
		{
			flag_bufferCheio=1;
   803fa:	4613      	mov	r3, r2
   803fc:	2201      	movs	r2, #1
   803fe:	601a      	str	r2, [r3, #0]
			i=0;
   80400:	2200      	movs	r2, #0
   80402:	605a      	str	r2, [r3, #4]
   80404:	4770      	bx	lr
		}
	}
	else
	{
		uint32_t lixo;
		lixo = UART->UART_RHR;					// o registrador UART_RHR sempre deve ser lido
   80406:	4b02      	ldr	r3, [pc, #8]	; (80410 <UART_Handler+0x30>)
   80408:	699b      	ldr	r3, [r3, #24]
   8040a:	4770      	bx	lr
   8040c:	2000044c 	.word	0x2000044c
   80410:	400e0800 	.word	0x400e0800
   80414:	20000524 	.word	0x20000524

00080418 <limpaBufferRX>:
	}
}
//-------------------------------------------------------------------------------------------
void limpaBufferRX()						// limpa buffer e libera nova escrita de dados
{
   80418:	b410      	push	{r4}
   8041a:	4b06      	ldr	r3, [pc, #24]	; (80434 <limpaBufferRX+0x1c>)
   8041c:	f103 040b 	add.w	r4, r3, #11
	for(uint32_t i=0; i< tam_bufferRX+1; i++)
	{
		bufferRX[i]=0;
   80420:	2200      	movs	r2, #0
		flag_bufferCheio = 0;
   80422:	4805      	ldr	r0, [pc, #20]	; (80438 <limpaBufferRX+0x20>)
   80424:	4611      	mov	r1, r2
//-------------------------------------------------------------------------------------------
void limpaBufferRX()						// limpa buffer e libera nova escrita de dados
{
	for(uint32_t i=0; i< tam_bufferRX+1; i++)
	{
		bufferRX[i]=0;
   80426:	f803 2b01 	strb.w	r2, [r3], #1
		flag_bufferCheio = 0;
   8042a:	6001      	str	r1, [r0, #0]
	}
}
//-------------------------------------------------------------------------------------------
void limpaBufferRX()						// limpa buffer e libera nova escrita de dados
{
	for(uint32_t i=0; i< tam_bufferRX+1; i++)
   8042c:	42a3      	cmp	r3, r4
   8042e:	d1fa      	bne.n	80426 <limpaBufferRX+0xe>
	{
		bufferRX[i]=0;
		flag_bufferCheio = 0;
	}
}
   80430:	bc10      	pop	{r4}
   80432:	4770      	bx	lr
   80434:	20000524 	.word	0x20000524
   80438:	2000044c 	.word	0x2000044c

0008043c <returnStatusBufferRx>:
	return bufferRX;
}
//-------------------------------------------------------------------------------------------
uint32_t returnStatusBufferRx()
{
	if(flag_bufferCheio==0)
   8043c:	4b02      	ldr	r3, [pc, #8]	; (80448 <returnStatusBufferRx+0xc>)
   8043e:	6818      	ldr	r0, [r3, #0]
	return 0;
	else return 1;
}
   80440:	3000      	adds	r0, #0
   80442:	bf18      	it	ne
   80444:	2001      	movne	r0, #1
   80446:	4770      	bx	lr
   80448:	2000044c 	.word	0x2000044c

0008044c <inic_UART>:
//-------------------------------------------------------------------------------------------
void inic_UART()
{
   8044c:	b508      	push	{r3, lr}
	PIOA->PIO_ABSR &=~ (PIO_PA9 | PIO_PA8);						// seleção do periferico UART no PIOA, pinos PA8 e PA9 (periférico A)
   8044e:	4b0d      	ldr	r3, [pc, #52]	; (80484 <inic_UART+0x38>)
   80450:	6f1a      	ldr	r2, [r3, #112]	; 0x70
   80452:	f422 7240 	bic.w	r2, r2, #768	; 0x300
   80456:	671a      	str	r2, [r3, #112]	; 0x70
	PIOA->PIO_PDR = PIO_PA9 | PIO_PA8;							// moves pins control from PIO controller to Peripheral
   80458:	f44f 7240 	mov.w	r2, #768	; 0x300
   8045c:	605a      	str	r2, [r3, #4]

	PMC->PMC_PCER0 = 1 << ID_UART;								// the UART clock must be enable in the PMC
   8045e:	f44f 7280 	mov.w	r2, #256	; 0x100
   80462:	f5a3 6300 	sub.w	r3, r3, #2048	; 0x800
   80466:	611a      	str	r2, [r3, #16]
	
	UART->UART_BRGR = UART_CD;									// ajuste da taxa de comunicacao
   80468:	f503 7300 	add.w	r3, r3, #512	; 0x200
   8046c:	f240 2222 	movw	r2, #546	; 0x222
   80470:	621a      	str	r2, [r3, #32]
	UART->UART_CR = UART_CR_RXEN | UART_CR_TXEN;				// Habilita transmissão e recepção
   80472:	2250      	movs	r2, #80	; 0x50
   80474:	601a      	str	r2, [r3, #0]
	UART->UART_MR = UART_MR_CHMODE_NORMAL | UART_MR_PAR_NO;		// sem paridade, modo normal
   80476:	f44f 6200 	mov.w	r2, #2048	; 0x800
   8047a:	605a      	str	r2, [r3, #4]
	
	limpaBufferRX();
   8047c:	4b02      	ldr	r3, [pc, #8]	; (80488 <inic_UART+0x3c>)
   8047e:	4798      	blx	r3
   80480:	bd08      	pop	{r3, pc}
   80482:	bf00      	nop
   80484:	400e0e00 	.word	0x400e0e00
   80488:	00080419 	.word	0x00080419

0008048c <inic_Interrupt_RX>:

//-------------------------------------------------------------------------------------------
void inic_Interrupt_RX()
{
	// Habilitando a interrupção da UART na recepção
	UART->UART_IER =  UART_IER_RXRDY;					// Habilita interrupção após recepção
   8048c:	2201      	movs	r2, #1
   8048e:	4b03      	ldr	r3, [pc, #12]	; (8049c <inic_Interrupt_RX+0x10>)
   80490:	609a      	str	r2, [r3, #8]

    \param [in]      IRQn  External interrupt number. Value cannot be negative.
 */
__STATIC_INLINE void NVIC_EnableIRQ(IRQn_Type IRQn)
{
  NVIC->ISER[((uint32_t)(IRQn) >> 5)] = (1 << ((uint32_t)(IRQn) & 0x1F)); /* enable interrupt */
   80492:	f44f 7280 	mov.w	r2, #256	; 0x100
   80496:	4b02      	ldr	r3, [pc, #8]	; (804a0 <inic_Interrupt_RX+0x14>)
   80498:	601a      	str	r2, [r3, #0]
   8049a:	4770      	bx	lr
   8049c:	400e0800 	.word	0x400e0800
   804a0:	e000e100 	.word	0xe000e100

000804a4 <escreve_UARTcarac>:
	NVIC_EnableIRQ((IRQn_Type) ID_UART);				// Habilitação do NVIC - função padrão (CMSIS library)
}
//-------------------------------------------------------------------------------------------
void escreve_UARTcarac(char c)
{
	while(!(UART->UART_SR & UART_SR_TXRDY));	// wait until previous character is processed
   804a4:	4a03      	ldr	r2, [pc, #12]	; (804b4 <escreve_UARTcarac+0x10>)
   804a6:	6953      	ldr	r3, [r2, #20]
   804a8:	f013 0f02 	tst.w	r3, #2
   804ac:	d0fb      	beq.n	804a6 <escreve_UARTcarac+0x2>
	UART->UART_THR = c;
   804ae:	4b01      	ldr	r3, [pc, #4]	; (804b4 <escreve_UARTcarac+0x10>)
   804b0:	61d8      	str	r0, [r3, #28]
   804b2:	4770      	bx	lr
   804b4:	400e0800 	.word	0x400e0800

000804b8 <escreve_UARTmsg>:
}
//-------------------------------------------------------------------------------------------
void escreve_UARTmsg(char * msg)
{
   804b8:	b538      	push	{r3, r4, r5, lr}
   804ba:	4604      	mov	r4, r0
	for (; *msg!=0; msg++) 	 escreve_UARTcarac(*msg);
   804bc:	7800      	ldrb	r0, [r0, #0]
   804be:	b128      	cbz	r0, 804cc <escreve_UARTmsg+0x14>
   804c0:	4d03      	ldr	r5, [pc, #12]	; (804d0 <escreve_UARTmsg+0x18>)
   804c2:	47a8      	blx	r5
   804c4:	f814 0f01 	ldrb.w	r0, [r4, #1]!
   804c8:	2800      	cmp	r0, #0
   804ca:	d1fa      	bne.n	804c2 <escreve_UARTmsg+0xa>
   804cc:	bd38      	pop	{r3, r4, r5, pc}
   804ce:	bf00      	nop
   804d0:	000804a5 	.word	0x000804a5

000804d4 <escreve_bufferRX>:
}
//-------------------------------------------------------------------------------------------
void escreve_bufferRX()						// se houver dados no buffer, escreve
{
   804d4:	b538      	push	{r3, r4, r5, lr}
	uint32_t i=0;
	
	while(bufferRX[i]!=0)
   804d6:	4b05      	ldr	r3, [pc, #20]	; (804ec <escreve_bufferRX+0x18>)
   804d8:	7818      	ldrb	r0, [r3, #0]
   804da:	b130      	cbz	r0, 804ea <escreve_bufferRX+0x16>
   804dc:	461c      	mov	r4, r3
	{
		escreve_UARTcarac(bufferRX[i]);
   804de:	4d04      	ldr	r5, [pc, #16]	; (804f0 <escreve_bufferRX+0x1c>)
   804e0:	47a8      	blx	r5
//-------------------------------------------------------------------------------------------
void escreve_bufferRX()						// se houver dados no buffer, escreve
{
	uint32_t i=0;
	
	while(bufferRX[i]!=0)
   804e2:	f814 0f01 	ldrb.w	r0, [r4, #1]!
   804e6:	2800      	cmp	r0, #0
   804e8:	d1fa      	bne.n	804e0 <escreve_bufferRX+0xc>
   804ea:	bd38      	pop	{r3, r4, r5, pc}
   804ec:	20000524 	.word	0x20000524
   804f0:	000804a5 	.word	0x000804a5

000804f4 <init_usart0>:
#include "USART.h"

void init_usart0(void)
{
	PMC->PMC_PCER0  |= USART0_PMC_ENABLE;
   804f4:	4a0e      	ldr	r2, [pc, #56]	; (80530 <init_usart0+0x3c>)
   804f6:	6913      	ldr	r3, [r2, #16]
   804f8:	f443 3300 	orr.w	r3, r3, #131072	; 0x20000
   804fc:	6113      	str	r3, [r2, #16]
	PIOA->PIO_PDR   |= USART0_PIN_CONTROL_TO_PERI;
   804fe:	4b0d      	ldr	r3, [pc, #52]	; (80534 <init_usart0+0x40>)
   80500:	685a      	ldr	r2, [r3, #4]
   80502:	f442 6240 	orr.w	r2, r2, #3072	; 0xc00
   80506:	605a      	str	r2, [r3, #4]
	PIOA->PIO_OER   |= USART0_TX_OUTPUT;
   80508:	691a      	ldr	r2, [r3, #16]
   8050a:	f442 6200 	orr.w	r2, r2, #2048	; 0x800
   8050e:	611a      	str	r2, [r3, #16]
	PIOA->PIO_ABSR  &= USART0_PINS_TO_PERI_A;
   80510:	6f1a      	ldr	r2, [r3, #112]	; 0x70
   80512:	f422 6240 	bic.w	r2, r2, #3072	; 0xc00
   80516:	671a      	str	r2, [r3, #112]	; 0x70

	USART0->US_CR    = ENABLE_RX;
   80518:	4b07      	ldr	r3, [pc, #28]	; (80538 <init_usart0+0x44>)
   8051a:	2210      	movs	r2, #16
   8051c:	601a      	str	r2, [r3, #0]
	USART0->US_MR    = USART_MODE_REG;
   8051e:	f44f 620c 	mov.w	r2, #2240	; 0x8c0
   80522:	605a      	str	r2, [r3, #4]
	USART0->US_BRGR  = BAUD_9600;
   80524:	f240 2223 	movw	r2, #547	; 0x223
   80528:	621a      	str	r2, [r3, #32]
	//USART0->US_IDR = 0xffffffff; //US_IDR_RXRDY | US_IDR_TXRDY ;//Desabilita interrupção do TX e RX
	USART0->US_IER   = RXRDY_IRQ_ENABLE;
   8052a:	2201      	movs	r2, #1
   8052c:	609a      	str	r2, [r3, #8]
   8052e:	4770      	bx	lr
   80530:	400e0600 	.word	0x400e0600
   80534:	400e0e00 	.word	0x400e0e00
   80538:	40098000 	.word	0x40098000

0008053c <le_USARTcarac>:
	//NVIC_EnableIRQ(USART0_IRQn);
}

uint32_t le_USARTcarac()
{
	while(!(USART0->US_CSR &  US_CSR_RXRDY));
   8053c:	4a04      	ldr	r2, [pc, #16]	; (80550 <le_USARTcarac+0x14>)
   8053e:	6953      	ldr	r3, [r2, #20]
   80540:	f013 0f01 	tst.w	r3, #1
   80544:	d0fb      	beq.n	8053e <le_USARTcarac+0x2>
	return (USART0->US_RHR & 0xff);
   80546:	4b02      	ldr	r3, [pc, #8]	; (80550 <le_USARTcarac+0x14>)
   80548:	6998      	ldr	r0, [r3, #24]
}
   8054a:	b2c0      	uxtb	r0, r0
   8054c:	4770      	bx	lr
   8054e:	bf00      	nop
   80550:	40098000 	.word	0x40098000

00080554 <__libc_init_array>:
   80554:	b570      	push	{r4, r5, r6, lr}
   80556:	4e0f      	ldr	r6, [pc, #60]	; (80594 <__libc_init_array+0x40>)
   80558:	4d0f      	ldr	r5, [pc, #60]	; (80598 <__libc_init_array+0x44>)
   8055a:	1b76      	subs	r6, r6, r5
   8055c:	10b6      	asrs	r6, r6, #2
   8055e:	bf18      	it	ne
   80560:	2400      	movne	r4, #0
   80562:	d005      	beq.n	80570 <__libc_init_array+0x1c>
   80564:	3401      	adds	r4, #1
   80566:	f855 3b04 	ldr.w	r3, [r5], #4
   8056a:	4798      	blx	r3
   8056c:	42a6      	cmp	r6, r4
   8056e:	d1f9      	bne.n	80564 <__libc_init_array+0x10>
   80570:	4e0a      	ldr	r6, [pc, #40]	; (8059c <__libc_init_array+0x48>)
   80572:	4d0b      	ldr	r5, [pc, #44]	; (805a0 <__libc_init_array+0x4c>)
   80574:	f000 f9d4 	bl	80920 <_init>
   80578:	1b76      	subs	r6, r6, r5
   8057a:	10b6      	asrs	r6, r6, #2
   8057c:	bf18      	it	ne
   8057e:	2400      	movne	r4, #0
   80580:	d006      	beq.n	80590 <__libc_init_array+0x3c>
   80582:	3401      	adds	r4, #1
   80584:	f855 3b04 	ldr.w	r3, [r5], #4
   80588:	4798      	blx	r3
   8058a:	42a6      	cmp	r6, r4
   8058c:	d1f9      	bne.n	80582 <__libc_init_array+0x2e>
   8058e:	bd70      	pop	{r4, r5, r6, pc}
   80590:	bd70      	pop	{r4, r5, r6, pc}
   80592:	bf00      	nop
   80594:	0008092c 	.word	0x0008092c
   80598:	0008092c 	.word	0x0008092c
   8059c:	00080934 	.word	0x00080934
   805a0:	0008092c 	.word	0x0008092c

000805a4 <strcmp>:
   805a4:	ea80 0c01 	eor.w	ip, r0, r1
   805a8:	f01c 0f03 	tst.w	ip, #3
   805ac:	d137      	bne.n	8061e <strcmp+0x7a>
   805ae:	f010 0c03 	ands.w	ip, r0, #3
   805b2:	f020 0003 	bic.w	r0, r0, #3
   805b6:	f021 0103 	bic.w	r1, r1, #3
   805ba:	f850 2b04 	ldr.w	r2, [r0], #4
   805be:	bf08      	it	eq
   805c0:	f851 3b04 	ldreq.w	r3, [r1], #4
   805c4:	d00e      	beq.n	805e4 <strcmp+0x40>
   805c6:	f08c 0c03 	eor.w	ip, ip, #3
   805ca:	f06f 437f 	mvn.w	r3, #4278190080	; 0xff000000
   805ce:	ea4f 0ccc 	mov.w	ip, ip, lsl #3
   805d2:	fa23 fc0c 	lsr.w	ip, r3, ip
   805d6:	f851 3b04 	ldr.w	r3, [r1], #4
   805da:	ea42 020c 	orr.w	r2, r2, ip
   805de:	ea43 030c 	orr.w	r3, r3, ip
   805e2:	bf00      	nop
   805e4:	f1a2 3c01 	sub.w	ip, r2, #16843009	; 0x1010101
   805e8:	429a      	cmp	r2, r3
   805ea:	bf01      	itttt	eq
   805ec:	ea2c 0c02 	biceq.w	ip, ip, r2
   805f0:	f01c 3f80 	tsteq.w	ip, #2155905152	; 0x80808080
   805f4:	f850 2b04 	ldreq.w	r2, [r0], #4
   805f8:	f851 3b04 	ldreq.w	r3, [r1], #4
   805fc:	d0f2      	beq.n	805e4 <strcmp+0x40>
   805fe:	ea4f 6002 	mov.w	r0, r2, lsl #24
   80602:	ea4f 2212 	mov.w	r2, r2, lsr #8
   80606:	2801      	cmp	r0, #1
   80608:	bf28      	it	cs
   8060a:	ebb0 6f03 	cmpcs.w	r0, r3, lsl #24
   8060e:	bf08      	it	eq
   80610:	0a1b      	lsreq	r3, r3, #8
   80612:	d0f4      	beq.n	805fe <strcmp+0x5a>
   80614:	f003 03ff 	and.w	r3, r3, #255	; 0xff
   80618:	0e00      	lsrs	r0, r0, #24
   8061a:	1ac0      	subs	r0, r0, r3
   8061c:	4770      	bx	lr
   8061e:	f010 0f03 	tst.w	r0, #3
   80622:	d00a      	beq.n	8063a <strcmp+0x96>
   80624:	f810 2b01 	ldrb.w	r2, [r0], #1
   80628:	f811 3b01 	ldrb.w	r3, [r1], #1
   8062c:	2a01      	cmp	r2, #1
   8062e:	bf28      	it	cs
   80630:	429a      	cmpcs	r2, r3
   80632:	d0f4      	beq.n	8061e <strcmp+0x7a>
   80634:	eba2 0003 	sub.w	r0, r2, r3
   80638:	4770      	bx	lr
   8063a:	f84d 5d04 	str.w	r5, [sp, #-4]!
   8063e:	f850 2b04 	ldr.w	r2, [r0], #4
   80642:	f001 0503 	and.w	r5, r1, #3
   80646:	f021 0103 	bic.w	r1, r1, #3
   8064a:	f851 3b04 	ldr.w	r3, [r1], #4
   8064e:	2d02      	cmp	r5, #2
   80650:	d026      	beq.n	806a0 <strcmp+0xfc>
   80652:	d84d      	bhi.n	806f0 <strcmp+0x14c>
   80654:	f022 457f 	bic.w	r5, r2, #4278190080	; 0xff000000
   80658:	ebb5 2f13 	cmp.w	r5, r3, lsr #8
   8065c:	f1a2 3c01 	sub.w	ip, r2, #16843009	; 0x1010101
   80660:	ea2c 0c02 	bic.w	ip, ip, r2
   80664:	d10d      	bne.n	80682 <strcmp+0xde>
   80666:	f01c 3c80 	ands.w	ip, ip, #2155905152	; 0x80808080
   8066a:	bf08      	it	eq
   8066c:	f851 3b04 	ldreq.w	r3, [r1], #4
   80670:	d10a      	bne.n	80688 <strcmp+0xe4>
   80672:	ea85 0502 	eor.w	r5, r5, r2
   80676:	ebb5 6f03 	cmp.w	r5, r3, lsl #24
   8067a:	d10c      	bne.n	80696 <strcmp+0xf2>
   8067c:	f850 2b04 	ldr.w	r2, [r0], #4
   80680:	e7e8      	b.n	80654 <strcmp+0xb0>
   80682:	ea4f 2313 	mov.w	r3, r3, lsr #8
   80686:	e05b      	b.n	80740 <strcmp+0x19c>
   80688:	f03c 4c7f 	bics.w	ip, ip, #4278190080	; 0xff000000
   8068c:	d154      	bne.n	80738 <strcmp+0x194>
   8068e:	780b      	ldrb	r3, [r1, #0]
   80690:	ea4f 6512 	mov.w	r5, r2, lsr #24
   80694:	e054      	b.n	80740 <strcmp+0x19c>
   80696:	ea4f 6512 	mov.w	r5, r2, lsr #24
   8069a:	f003 03ff 	and.w	r3, r3, #255	; 0xff
   8069e:	e04f      	b.n	80740 <strcmp+0x19c>
   806a0:	ea4f 4502 	mov.w	r5, r2, lsl #16
   806a4:	f1a2 3c01 	sub.w	ip, r2, #16843009	; 0x1010101
   806a8:	ea4f 4515 	mov.w	r5, r5, lsr #16
   806ac:	ea2c 0c02 	bic.w	ip, ip, r2
   806b0:	ebb5 4f13 	cmp.w	r5, r3, lsr #16
   806b4:	d118      	bne.n	806e8 <strcmp+0x144>
   806b6:	f01c 3c80 	ands.w	ip, ip, #2155905152	; 0x80808080
   806ba:	bf08      	it	eq
   806bc:	f851 3b04 	ldreq.w	r3, [r1], #4
   806c0:	d107      	bne.n	806d2 <strcmp+0x12e>
   806c2:	ea85 0502 	eor.w	r5, r5, r2
   806c6:	ebb5 4f03 	cmp.w	r5, r3, lsl #16
   806ca:	d109      	bne.n	806e0 <strcmp+0x13c>
   806cc:	f850 2b04 	ldr.w	r2, [r0], #4
   806d0:	e7e6      	b.n	806a0 <strcmp+0xfc>
   806d2:	ea5f 4c0c 	movs.w	ip, ip, lsl #16
   806d6:	d12f      	bne.n	80738 <strcmp+0x194>
   806d8:	880b      	ldrh	r3, [r1, #0]
   806da:	ea4f 4512 	mov.w	r5, r2, lsr #16
   806de:	e02f      	b.n	80740 <strcmp+0x19c>
   806e0:	ea4f 4303 	mov.w	r3, r3, lsl #16
   806e4:	ea4f 4512 	mov.w	r5, r2, lsr #16
   806e8:	ea4f 4313 	mov.w	r3, r3, lsr #16
   806ec:	e028      	b.n	80740 <strcmp+0x19c>
   806ee:	bf00      	nop
   806f0:	f002 05ff 	and.w	r5, r2, #255	; 0xff
   806f4:	ebb5 6f13 	cmp.w	r5, r3, lsr #24
   806f8:	f1a2 3c01 	sub.w	ip, r2, #16843009	; 0x1010101
   806fc:	ea2c 0c02 	bic.w	ip, ip, r2
   80700:	d10d      	bne.n	8071e <strcmp+0x17a>
   80702:	f01c 3c80 	ands.w	ip, ip, #2155905152	; 0x80808080
   80706:	bf08      	it	eq
   80708:	f851 3b04 	ldreq.w	r3, [r1], #4
   8070c:	d10a      	bne.n	80724 <strcmp+0x180>
   8070e:	ea85 0502 	eor.w	r5, r5, r2
   80712:	ebb5 2f03 	cmp.w	r5, r3, lsl #8
   80716:	d10a      	bne.n	8072e <strcmp+0x18a>
   80718:	f850 2b04 	ldr.w	r2, [r0], #4
   8071c:	e7e8      	b.n	806f0 <strcmp+0x14c>
   8071e:	ea4f 6313 	mov.w	r3, r3, lsr #24
   80722:	e00d      	b.n	80740 <strcmp+0x19c>
   80724:	f012 0fff 	tst.w	r2, #255	; 0xff
   80728:	d006      	beq.n	80738 <strcmp+0x194>
   8072a:	f851 3b04 	ldr.w	r3, [r1], #4
   8072e:	ea4f 2512 	mov.w	r5, r2, lsr #8
   80732:	f023 437f 	bic.w	r3, r3, #4278190080	; 0xff000000
   80736:	e003      	b.n	80740 <strcmp+0x19c>
   80738:	f04f 0000 	mov.w	r0, #0
   8073c:	bc20      	pop	{r5}
   8073e:	4770      	bx	lr
   80740:	f005 02ff 	and.w	r2, r5, #255	; 0xff
   80744:	f003 00ff 	and.w	r0, r3, #255	; 0xff
   80748:	2801      	cmp	r0, #1
   8074a:	bf28      	it	cs
   8074c:	4290      	cmpcs	r0, r2
   8074e:	bf04      	itt	eq
   80750:	0a2d      	lsreq	r5, r5, #8
   80752:	0a1b      	lsreq	r3, r3, #8
   80754:	d0f4      	beq.n	80740 <strcmp+0x19c>
   80756:	eba2 0000 	sub.w	r0, r2, r0
   8075a:	bc20      	pop	{r5}
   8075c:	4770      	bx	lr
   8075e:	bf00      	nop

00080760 <strcpy>:
   80760:	ea80 0201 	eor.w	r2, r0, r1
   80764:	4684      	mov	ip, r0
   80766:	f012 0f03 	tst.w	r2, #3
   8076a:	d14f      	bne.n	8080c <strcpy+0xac>
   8076c:	f011 0f03 	tst.w	r1, #3
   80770:	d132      	bne.n	807d8 <strcpy+0x78>
   80772:	f84d 4d04 	str.w	r4, [sp, #-4]!
   80776:	f011 0f04 	tst.w	r1, #4
   8077a:	f851 3b04 	ldr.w	r3, [r1], #4
   8077e:	d00b      	beq.n	80798 <strcpy+0x38>
   80780:	f1a3 3201 	sub.w	r2, r3, #16843009	; 0x1010101
   80784:	439a      	bics	r2, r3
   80786:	f012 3f80 	tst.w	r2, #2155905152	; 0x80808080
   8078a:	bf04      	itt	eq
   8078c:	f84c 3b04 	streq.w	r3, [ip], #4
   80790:	f851 3b04 	ldreq.w	r3, [r1], #4
   80794:	d116      	bne.n	807c4 <strcpy+0x64>
   80796:	bf00      	nop
   80798:	f851 4b04 	ldr.w	r4, [r1], #4
   8079c:	f1a3 3201 	sub.w	r2, r3, #16843009	; 0x1010101
   807a0:	439a      	bics	r2, r3
   807a2:	f012 3f80 	tst.w	r2, #2155905152	; 0x80808080
   807a6:	f1a4 3201 	sub.w	r2, r4, #16843009	; 0x1010101
   807aa:	d10b      	bne.n	807c4 <strcpy+0x64>
   807ac:	f84c 3b04 	str.w	r3, [ip], #4
   807b0:	43a2      	bics	r2, r4
   807b2:	f012 3f80 	tst.w	r2, #2155905152	; 0x80808080
   807b6:	bf04      	itt	eq
   807b8:	f851 3b04 	ldreq.w	r3, [r1], #4
   807bc:	f84c 4b04 	streq.w	r4, [ip], #4
   807c0:	d0ea      	beq.n	80798 <strcpy+0x38>
   807c2:	4623      	mov	r3, r4
   807c4:	f80c 3b01 	strb.w	r3, [ip], #1
   807c8:	f013 0fff 	tst.w	r3, #255	; 0xff
   807cc:	ea4f 2333 	mov.w	r3, r3, ror #8
   807d0:	d1f8      	bne.n	807c4 <strcpy+0x64>
   807d2:	f85d 4b04 	ldr.w	r4, [sp], #4
   807d6:	4770      	bx	lr
   807d8:	f011 0f01 	tst.w	r1, #1
   807dc:	d006      	beq.n	807ec <strcpy+0x8c>
   807de:	f811 2b01 	ldrb.w	r2, [r1], #1
   807e2:	f80c 2b01 	strb.w	r2, [ip], #1
   807e6:	2a00      	cmp	r2, #0
   807e8:	bf08      	it	eq
   807ea:	4770      	bxeq	lr
   807ec:	f011 0f02 	tst.w	r1, #2
   807f0:	d0bf      	beq.n	80772 <strcpy+0x12>
   807f2:	f831 2b02 	ldrh.w	r2, [r1], #2
   807f6:	f012 0fff 	tst.w	r2, #255	; 0xff
   807fa:	bf16      	itet	ne
   807fc:	f82c 2b02 	strhne.w	r2, [ip], #2
   80800:	f88c 2000 	strbeq.w	r2, [ip]
   80804:	f412 4f7f 	tstne.w	r2, #65280	; 0xff00
   80808:	d1b3      	bne.n	80772 <strcpy+0x12>
   8080a:	4770      	bx	lr
   8080c:	f811 2b01 	ldrb.w	r2, [r1], #1
   80810:	f80c 2b01 	strb.w	r2, [ip], #1
   80814:	2a00      	cmp	r2, #0
   80816:	d1f9      	bne.n	8080c <strcpy+0xac>
   80818:	4770      	bx	lr
   8081a:	bf00      	nop

0008081c <register_fini>:
   8081c:	4b02      	ldr	r3, [pc, #8]	; (80828 <register_fini+0xc>)
   8081e:	b113      	cbz	r3, 80826 <register_fini+0xa>
   80820:	4802      	ldr	r0, [pc, #8]	; (8082c <register_fini+0x10>)
   80822:	f000 b805 	b.w	80830 <atexit>
   80826:	4770      	bx	lr
   80828:	00000000 	.word	0x00000000
   8082c:	0008083d 	.word	0x0008083d

00080830 <atexit>:
   80830:	2300      	movs	r3, #0
   80832:	4601      	mov	r1, r0
   80834:	461a      	mov	r2, r3
   80836:	4618      	mov	r0, r3
   80838:	f000 b814 	b.w	80864 <__register_exitproc>

0008083c <__libc_fini_array>:
   8083c:	b538      	push	{r3, r4, r5, lr}
   8083e:	4d07      	ldr	r5, [pc, #28]	; (8085c <__libc_fini_array+0x20>)
   80840:	4c07      	ldr	r4, [pc, #28]	; (80860 <__libc_fini_array+0x24>)
   80842:	1b2c      	subs	r4, r5, r4
   80844:	10a4      	asrs	r4, r4, #2
   80846:	d005      	beq.n	80854 <__libc_fini_array+0x18>
   80848:	3c01      	subs	r4, #1
   8084a:	f855 3d04 	ldr.w	r3, [r5, #-4]!
   8084e:	4798      	blx	r3
   80850:	2c00      	cmp	r4, #0
   80852:	d1f9      	bne.n	80848 <__libc_fini_array+0xc>
   80854:	e8bd 4038 	ldmia.w	sp!, {r3, r4, r5, lr}
   80858:	f000 b86c 	b.w	80934 <_fini>
   8085c:	00080944 	.word	0x00080944
   80860:	00080940 	.word	0x00080940

00080864 <__register_exitproc>:
   80864:	e92d 47f0 	stmdb	sp!, {r4, r5, r6, r7, r8, r9, sl, lr}
   80868:	4c25      	ldr	r4, [pc, #148]	; (80900 <__register_exitproc+0x9c>)
   8086a:	4606      	mov	r6, r0
   8086c:	6825      	ldr	r5, [r4, #0]
   8086e:	4688      	mov	r8, r1
   80870:	f8d5 4148 	ldr.w	r4, [r5, #328]	; 0x148
   80874:	4692      	mov	sl, r2
   80876:	4699      	mov	r9, r3
   80878:	b3c4      	cbz	r4, 808ec <__register_exitproc+0x88>
   8087a:	6860      	ldr	r0, [r4, #4]
   8087c:	281f      	cmp	r0, #31
   8087e:	dc17      	bgt.n	808b0 <__register_exitproc+0x4c>
   80880:	1c41      	adds	r1, r0, #1
   80882:	b176      	cbz	r6, 808a2 <__register_exitproc+0x3e>
   80884:	eb04 0380 	add.w	r3, r4, r0, lsl #2
   80888:	f8c3 a088 	str.w	sl, [r3, #136]	; 0x88
   8088c:	f8d4 5188 	ldr.w	r5, [r4, #392]	; 0x188
   80890:	2201      	movs	r2, #1
   80892:	4082      	lsls	r2, r0
   80894:	4315      	orrs	r5, r2
   80896:	2e02      	cmp	r6, #2
   80898:	f8c4 5188 	str.w	r5, [r4, #392]	; 0x188
   8089c:	f8c3 9108 	str.w	r9, [r3, #264]	; 0x108
   808a0:	d01e      	beq.n	808e0 <__register_exitproc+0x7c>
   808a2:	1c83      	adds	r3, r0, #2
   808a4:	6061      	str	r1, [r4, #4]
   808a6:	2000      	movs	r0, #0
   808a8:	f844 8023 	str.w	r8, [r4, r3, lsl #2]
   808ac:	e8bd 87f0 	ldmia.w	sp!, {r4, r5, r6, r7, r8, r9, sl, pc}
   808b0:	4b14      	ldr	r3, [pc, #80]	; (80904 <__register_exitproc+0xa0>)
   808b2:	b303      	cbz	r3, 808f6 <__register_exitproc+0x92>
   808b4:	f44f 70c8 	mov.w	r0, #400	; 0x190
   808b8:	f3af 8000 	nop.w
   808bc:	4604      	mov	r4, r0
   808be:	b1d0      	cbz	r0, 808f6 <__register_exitproc+0x92>
   808c0:	f8d5 3148 	ldr.w	r3, [r5, #328]	; 0x148
   808c4:	2700      	movs	r7, #0
   808c6:	e884 0088 	stmia.w	r4, {r3, r7}
   808ca:	4638      	mov	r0, r7
   808cc:	f8c5 4148 	str.w	r4, [r5, #328]	; 0x148
   808d0:	2101      	movs	r1, #1
   808d2:	f8c4 7188 	str.w	r7, [r4, #392]	; 0x188
   808d6:	f8c4 718c 	str.w	r7, [r4, #396]	; 0x18c
   808da:	2e00      	cmp	r6, #0
   808dc:	d0e1      	beq.n	808a2 <__register_exitproc+0x3e>
   808de:	e7d1      	b.n	80884 <__register_exitproc+0x20>
   808e0:	f8d4 318c 	ldr.w	r3, [r4, #396]	; 0x18c
   808e4:	431a      	orrs	r2, r3
   808e6:	f8c4 218c 	str.w	r2, [r4, #396]	; 0x18c
   808ea:	e7da      	b.n	808a2 <__register_exitproc+0x3e>
   808ec:	f505 74a6 	add.w	r4, r5, #332	; 0x14c
   808f0:	f8c5 4148 	str.w	r4, [r5, #328]	; 0x148
   808f4:	e7c1      	b.n	8087a <__register_exitproc+0x16>
   808f6:	f04f 30ff 	mov.w	r0, #4294967295
   808fa:	e8bd 87f0 	ldmia.w	sp!, {r4, r5, r6, r7, r8, r9, sl, pc}
   808fe:	bf00      	nop
   80900:	0008091c 	.word	0x0008091c
   80904:	00000000 	.word	0x00000000
   80908:	49555141 	.word	0x49555141
   8090c:	00000a21 	.word	0x00000a21
   80910:	52504724 	.word	0x52504724
   80914:	0000434d 	.word	0x0000434d
   80918:	00000043 	.word	0x00000043

0008091c <_global_impure_ptr>:
   8091c:	20000008                                ... 

00080920 <_init>:
   80920:	b5f8      	push	{r3, r4, r5, r6, r7, lr}
   80922:	bf00      	nop
   80924:	bcf8      	pop	{r3, r4, r5, r6, r7}
   80926:	bc08      	pop	{r3}
   80928:	469e      	mov	lr, r3
   8092a:	4770      	bx	lr

0008092c <__init_array_start>:
   8092c:	0008081d 	.word	0x0008081d

00080930 <__frame_dummy_init_array_entry>:
   80930:	00080119                                ....

00080934 <_fini>:
   80934:	b5f8      	push	{r3, r4, r5, r6, r7, lr}
   80936:	bf00      	nop
   80938:	bcf8      	pop	{r3, r4, r5, r6, r7}
   8093a:	bc08      	pop	{r3}
   8093c:	469e      	mov	lr, r3
   8093e:	4770      	bx	lr

00080940 <__fini_array_start>:
   80940:	000800f5 	.word	0x000800f5
